target datalayout = "e-m:e-p270:32:32-p271:32:32-p272:64:64-i64:64-i128:128-f80:128-n8:16:32:64-S128"
target triple = "x86_64-pc-linux-gnu"

%struct._object = type { %union.anon, ptr }
%union.anon = type { i64 }
%struct.PickleState = type { ptr, ptr, ptr, ptr, ptr, ptr, ptr, ptr, ptr, ptr, ptr, ptr, ptr, ptr, ptr, ptr, ptr, ptr, ptr }
%struct.PicklerObject = type { %struct._object, ptr, ptr, ptr, ptr, ptr, ptr, ptr, i64, i64, i32, i32, i32, i64, i64, i32, i32, i32, ptr, ptr }
%struct.anon = type { i32, i32 }
%struct.PyMemoTable = type { i64, i64, i64, ptr }

; Function Attrs: alwaysinline nounwind uwtable
define internal i32 @_Py_IsImmortal(ptr noundef %0) #4 {
  %2 = alloca ptr, align 8
  store ptr %0, ptr %2, align 8, !tbaa !3
  %3 = load ptr, ptr %2, align 8, !tbaa !3
  %4 = getelementptr inbounds nuw %struct._object, ptr %3, i32 0, i32 0
  %5 = getelementptr inbounds nuw %struct.anon, ptr %4, i32 0, i32 0
  %6 = load i32, ptr %5, align 8, !tbaa !63
  %7 = icmp slt i32 %6, 0
  %8 = zext i1 %7 to i32
  ret i32 %8
}

; Function Attrs: alwaysinline nounwind uwtable
define internal void @Py_DECREF(ptr noundef %0) #4 {
  %2 = alloca ptr, align 8
  store ptr %0, ptr %2, align 8, !tbaa !3
  %3 = load ptr, ptr %2, align 8, !tbaa !3
  %4 = call i32 @_Py_IsImmortal(ptr noundef %3)
  %5 = icmp ne i32 %4, 0
  br i1 %5, label %6, label %7

6:                                                ; preds = %1
  br label %16

7:                                                ; preds = %1
  %8 = load ptr, ptr %2, align 8, !tbaa !3
  %9 = getelementptr inbounds nuw %struct._object, ptr %8, i32 0, i32 0
  %10 = getelementptr inbounds nuw %struct.anon, ptr %9, i32 0, i32 0
  %11 = load i32, ptr %10, align 8, !tbaa !63
  %12 = add i32 %11, -1
  store i32 %12, ptr %10, align 8, !tbaa !63
  %13 = icmp eq i32 %12, 0
  br i1 %13, label %14, label %16

14:                                               ; preds = %7
  %15 = load ptr, ptr %2, align 8, !tbaa !3
  call void @_Py_Dealloc(ptr noundef %15)
  br label %16

16:                                               ; preds = %6, %14, %7
  ret void
}

; Function Attrs: inlinehint nounwind uwtable
define internal void @Py_XDECREF(ptr noundef %0) #3 {
  %2 = alloca ptr, align 8
  store ptr %0, ptr %2, align 8, !tbaa !3
  %3 = load ptr, ptr %2, align 8, !tbaa !3
  %4 = icmp ne ptr %3, null
  br i1 %4, label %5, label %7

5:                                                ; preds = %1
  %6 = load ptr, ptr %2, align 8, !tbaa !3
  call void @Py_DECREF(ptr noundef %6)
  br label %7

7:                                                ; preds = %5, %1
  ret void
}

; Function Attrs: nounwind uwtable
define internal ptr @PyMemoTable_New() #0 {
  %1 = alloca ptr, align 8
  %2 = alloca ptr, align 8
  %3 = alloca i32, align 4
  call void @llvm.lifetime.start.p0(i64 8, ptr %2) #10
  %4 = call ptr @PyMem_Malloc(i64 noundef 32)
  store ptr %4, ptr %2, align 8, !tbaa !8
  %5 = load ptr, ptr %2, align 8, !tbaa !8
  %6 = icmp eq ptr %5, null
  br i1 %6, label %7, label %9

7:                                                ; preds = %0
  %8 = call ptr @PyErr_NoMemory()
  store ptr null, ptr %1, align 8
  store i32 1, ptr %3, align 4
  br label %31

9:                                                ; preds = %0
  %10 = load ptr, ptr %2, align 8, !tbaa !8
  %11 = getelementptr inbounds nuw %struct.PyMemoTable, ptr %10, i32 0, i32 1
  store i64 0, ptr %11, align 8, !tbaa !67
  %12 = load ptr, ptr %2, align 8, !tbaa !8
  %13 = getelementptr inbounds nuw %struct.PyMemoTable, ptr %12, i32 0, i32 2
  store i64 8, ptr %13, align 8, !tbaa !69
  %14 = load ptr, ptr %2, align 8, !tbaa !8
  %15 = getelementptr inbounds nuw %struct.PyMemoTable, ptr %14, i32 0, i32 0
  store i64 7, ptr %15, align 8, !tbaa !70
  %16 = call ptr @PyMem_Malloc(i64 noundef 128)
  %17 = load ptr, ptr %2, align 8, !tbaa !8
  %18 = getelementptr inbounds nuw %struct.PyMemoTable, ptr %17, i32 0, i32 3
  store ptr %16, ptr %18, align 8, !tbaa !71
  %19 = load ptr, ptr %2, align 8, !tbaa !8
  %20 = getelementptr inbounds nuw %struct.PyMemoTable, ptr %19, i32 0, i32 3
  %21 = load ptr, ptr %20, align 8, !tbaa !71
  %22 = icmp eq ptr %21, null
  br i1 %22, label %23, label %26

23:                                               ; preds = %9
  %24 = load ptr, ptr %2, align 8, !tbaa !8
  call void @PyMem_Free(ptr noundef %24)
  %25 = call ptr @PyErr_NoMemory()
  store ptr null, ptr %1, align 8
  store i32 1, ptr %3, align 4
  br label %31

26:                                               ; preds = %9
  %27 = load ptr, ptr %2, align 8, !tbaa !8
  %28 = getelementptr inbounds nuw %struct.PyMemoTable, ptr %27, i32 0, i32 3
  %29 = load ptr, ptr %28, align 8, !tbaa !71
  call void @llvm.memset.p0.i64(ptr align 8 %29, i8 0, i64 128, i1 false)
  %30 = load ptr, ptr %2, align 8, !tbaa !8
  store ptr %30, ptr %1, align 8
  store i32 1, ptr %3, align 4
  br label %31

31:                                               ; preds = %26, %23, %7
  call void @llvm.lifetime.end.p0(i64 8, ptr %2) #10
  %32 = load ptr, ptr %1, align 8
  ret ptr %32
}

; Function Attrs: nounwind uwtable
define internal ptr @_Pickler_New(ptr noundef %0) #0 {
  %2 = alloca ptr, align 8
  %3 = alloca ptr, align 8
  %4 = alloca ptr, align 8
  %5 = alloca i32, align 4
  %6 = alloca i64, align 8
  %7 = alloca ptr, align 8
  %8 = alloca ptr, align 8
  store ptr %0, ptr %3, align 8, !tbaa !8
  call void @llvm.lifetime.start.p0(i64 8, ptr %4) #10
  %9 = call ptr @PyMemoTable_New()
  store ptr %9, ptr %4, align 8, !tbaa !8
  %10 = load ptr, ptr %4, align 8, !tbaa !8
  %11 = icmp eq ptr %10, null
  br i1 %11, label %12, label %13

12:                                               ; preds = %1
  store ptr null, ptr %2, align 8
  store i32 1, ptr %5, align 4
  br label %73

13:                                               ; preds = %1
  call void @llvm.lifetime.start.p0(i64 8, ptr %6) #10
  store i64 4096, ptr %6, align 8, !tbaa !34
  call void @llvm.lifetime.start.p0(i64 8, ptr %7) #10
  %14 = call ptr @PyBytes_FromStringAndSize(ptr noundef null, i64 noundef 4096)
  store ptr %14, ptr %7, align 8, !tbaa !3
  %15 = load ptr, ptr %7, align 8, !tbaa !3
  %16 = icmp eq ptr %15, null
  br i1 %16, label %17, label %18

17:                                               ; preds = %13
  br label %69

18:                                               ; preds = %13
  %19 = load ptr, ptr %3, align 8, !tbaa !8
  %20 = getelementptr inbounds nuw %struct.PickleState, ptr %19, i32 0, i32 14
  %21 = load ptr, ptr %20, align 8, !tbaa !27
  %22 = call ptr @_PyObject_GC_New(ptr noundef %21)
  store ptr %22, ptr %8, align 8, !tbaa !38
  %23 = load ptr, ptr %8, align 8, !tbaa !38
  %24 = icmp eq ptr %23, null
  br i1 %24, label %25, label %26

25:                                               ; preds = %18
  br label %69

26:                                               ; preds = %18
  %27 = load ptr, ptr %4, align 8, !tbaa !8
  %28 = load ptr, ptr %8, align 8, !tbaa !38
  %29 = getelementptr inbounds nuw %struct.PicklerObject, ptr %28, i32 0, i32 1
  store ptr %27, ptr %29, align 8, !tbaa !43
  %30 = load ptr, ptr %8, align 8, !tbaa !38
  %31 = getelementptr inbounds nuw %struct.PicklerObject, ptr %30, i32 0, i32 2
  store ptr null, ptr %31, align 8, !tbaa !45
  %32 = load ptr, ptr %8, align 8, !tbaa !38
  %33 = getelementptr inbounds nuw %struct.PicklerObject, ptr %32, i32 0, i32 3
  store ptr null, ptr %33, align 8, !tbaa !46
  %34 = load ptr, ptr %8, align 8, !tbaa !38
  %35 = getelementptr inbounds nuw %struct.PicklerObject, ptr %34, i32 0, i32 4
  store ptr null, ptr %35, align 8, !tbaa !47
  %36 = load ptr, ptr %8, align 8, !tbaa !38
  %37 = getelementptr inbounds nuw %struct.PicklerObject, ptr %36, i32 0, i32 5
  store ptr null, ptr %37, align 8, !tbaa !48
  %38 = load ptr, ptr %8, align 8, !tbaa !38
  %39 = getelementptr inbounds nuw %struct.PicklerObject, ptr %38, i32 0, i32 6
  store ptr null, ptr %39, align 8, !tbaa !49
  %40 = load ptr, ptr %7, align 8, !tbaa !3
  %41 = load ptr, ptr %8, align 8, !tbaa !38
  %42 = getelementptr inbounds nuw %struct.PicklerObject, ptr %41, i32 0, i32 7
  store ptr %40, ptr %42, align 8, !tbaa !50
  %43 = load ptr, ptr %8, align 8, !tbaa !38
  %44 = getelementptr inbounds nuw %struct.PicklerObject, ptr %43, i32 0, i32 8
  store i64 0, ptr %44, align 8, !tbaa !51
  %45 = load ptr, ptr %8, align 8, !tbaa !38
  %46 = getelementptr inbounds nuw %struct.PicklerObject, ptr %45, i32 0, i32 9
  store i64 4096, ptr %46, align 8, !tbaa !52
  %47 = load ptr, ptr %8, align 8, !tbaa !38
  %48 = getelementptr inbounds nuw %struct.PicklerObject, ptr %47, i32 0, i32 10
  store i32 0, ptr %48, align 8, !tbaa !53
  %49 = load ptr, ptr %8, align 8, !tbaa !38
  %50 = getelementptr inbounds nuw %struct.PicklerObject, ptr %49, i32 0, i32 11
  store i32 0, ptr %50, align 4, !tbaa !54
  %51 = load ptr, ptr %8, align 8, !tbaa !38
  %52 = getelementptr inbounds nuw %struct.PicklerObject, ptr %51, i32 0, i32 12
  store i32 0, ptr %52, align 8, !tbaa !55
  %53 = load ptr, ptr %8, align 8, !tbaa !38
  %54 = getelementptr inbounds nuw %struct.PicklerObject, ptr %53, i32 0, i32 13
  store i64 -1, ptr %54, align 8, !tbaa !56
  %55 = load ptr, ptr %8, align 8, !tbaa !38
  %56 = getelementptr inbounds nuw %struct.PicklerObject, ptr %55, i32 0, i32 14
  store i64 0, ptr %56, align 8, !tbaa !57
  %57 = load ptr, ptr %8, align 8, !tbaa !38
  %58 = getelementptr inbounds nuw %struct.PicklerObject, ptr %57, i32 0, i32 15
  store i32 0, ptr %58, align 8, !tbaa !58
  %59 = load ptr, ptr %8, align 8, !tbaa !38
  %60 = getelementptr inbounds nuw %struct.PicklerObject, ptr %59, i32 0, i32 16
  store i32 0, ptr %60, align 4, !tbaa !59
  %61 = load ptr, ptr %8, align 8, !tbaa !38
  %62 = getelementptr inbounds nuw %struct.PicklerObject, ptr %61, i32 0, i32 17
  store i32 0, ptr %62, align 8, !tbaa !60
  %63 = load ptr, ptr %8, align 8, !tbaa !38
  %64 = getelementptr inbounds nuw %struct.PicklerObject, ptr %63, i32 0, i32 18
  store ptr null, ptr %64, align 8, !tbaa !61
  %65 = load ptr, ptr %8, align 8, !tbaa !38
  %66 = getelementptr inbounds nuw %struct.PicklerObject, ptr %65, i32 0, i32 19
  store ptr null, ptr %66, align 8, !tbaa !62
  %67 = load ptr, ptr %8, align 8, !tbaa !38
  call void @PyObject_GC_Track(ptr noundef %67)
  %68 = load ptr, ptr %8, align 8, !tbaa !38
  store ptr %68, ptr %2, align 8
  store i32 1, ptr %5, align 4
  br label %72

69:                                               ; preds = %25, %17
  %70 = load ptr, ptr %4, align 8, !tbaa !8
  call void @PyMem_Free(ptr noundef %70)
  %71 = load ptr, ptr %7, align 8, !tbaa !3
  call void @Py_XDECREF(ptr noundef %71)
  store ptr null, ptr %2, align 8
  store i32 1, ptr %5, align 4
  br label %72

72:                                               ; preds = %69, %26
  call void @llvm.lifetime.end.p0(i64 8, ptr %7) #10
  call void @llvm.lifetime.end.p0(i64 8, ptr %6) #10
  br label %73

73:                                               ; preds = %72, %12
  call void @llvm.lifetime.end.p0(i64 8, ptr %4) #10
  %74 = load ptr, ptr %2, align 8
  ret ptr %74
}