; Function Attrs: nounwind uwtable
define internal fastcc ptr @_Pickler_New(ptr noundef readonly captures(none) %0) unnamed_addr #0 {
  %2 = tail call ptr @PyMem_Malloc(i64 noundef 32) #13
  %3 = icmp eq ptr %2, null
  br i1 %3, label %4, label %6

4:                                                ; preds = %1
  %5 = tail call ptr @PyErr_NoMemory() #13
  br label %Py_XDECREF.exit

6:                                                ; preds = %1
  %7 = getelementptr inbounds nuw i8, ptr %2, i64 8
  store i64 0, ptr %7, align 8, !tbaa !73
  %8 = getelementptr inbounds nuw i8, ptr %2, i64 16
  store i64 8, ptr %8, align 8, !tbaa !75
  store i64 7, ptr %2, align 8, !tbaa !76
  %9 = tail call ptr @PyMem_Malloc(i64 noundef 128) #13
  %10 = getelementptr inbounds nuw i8, ptr %2, i64 24
  store ptr %9, ptr %10, align 8, !tbaa !77
  %11 = icmp eq ptr %9, null
  br i1 %11, label %12, label %14

12:                                               ; preds = %6
  tail call void @PyMem_Free(ptr noundef nonnull %2) #13
  %13 = tail call ptr @PyErr_NoMemory() #13
  br label %Py_XDECREF.exit

14:                                               ; preds = %6
  tail call void @llvm.memset.p0.i64(ptr noundef nonnull align 8 dereferenceable(128) %9, i8 0, i64 128, i1 false)
  %15 = tail call ptr @PyBytes_FromStringAndSize(ptr noundef null, i64 noundef 4096) #13
  %16 = icmp eq ptr %15, null
  br i1 %16, label %.split, label %17

.split:                                           ; preds = %14
  tail call void @PyMem_Free(ptr noundef nonnull %2) #13
  br label %Py_XDECREF.exit

17:                                               ; preds = %14
  %18 = getelementptr inbounds nuw i8, ptr %0, i64 112
  %19 = load ptr, ptr %18, align 8, !tbaa !27
  %20 = tail call ptr @_PyObject_GC_New(ptr noundef %19) #13
  %21 = icmp eq ptr %20, null
  br i1 %21, label %22, label %28

22:                                               ; preds = %17
  tail call void @PyMem_Free(ptr noundef nonnull %2) #13
  %23 = load i32, ptr %15, align 8, !tbaa !42
  %.not.i.i = icmp sgt i32 %23, -1
  br i1 %.not.i.i, label %24, label %Py_XDECREF.exit

24:                                               ; preds = %22
  %25 = add nsw i32 %23, -1
  store i32 %25, ptr %15, align 8, !tbaa !42
  %26 = icmp eq i32 %25, 0
  br i1 %26, label %27, label %Py_XDECREF.exit

27:                                               ; preds = %24
  tail call void @_Py_Dealloc(ptr noundef nonnull %15) #13
  br label %Py_XDECREF.exit

28:                                               ; preds = %17
  %29 = getelementptr inbounds nuw i8, ptr %20, i64 16
  store ptr %2, ptr %29, align 8, !tbaa !78
  %30 = getelementptr inbounds nuw i8, ptr %20, i64 24
  %31 = getelementptr inbounds nuw i8, ptr %20, i64 64
  tail call void @llvm.memset.p0.i64(ptr noundef nonnull align 8 dereferenceable(40) %30, i8 0, i64 40, i1 false)
  store ptr %15, ptr %31, align 8, !tbaa !44
  %32 = getelementptr inbounds nuw i8, ptr %20, i64 72
  store i64 0, ptr %32, align 8, !tbaa !47
  %33 = getelementptr inbounds nuw i8, ptr %20, i64 80
  store i64 4096, ptr %33, align 8, !tbaa !79
  %34 = getelementptr inbounds nuw i8, ptr %20, i64 88
  store i32 0, ptr %34, align 8, !tbaa !36
  %35 = getelementptr inbounds nuw i8, ptr %20, i64 92
  store i32 0, ptr %35, align 4, !tbaa !39
  %36 = getelementptr inbounds nuw i8, ptr %20, i64 96
  store i32 0, ptr %36, align 8, !tbaa !45
  %37 = getelementptr inbounds nuw i8, ptr %20, i64 104
  store i64 -1, ptr %37, align 8, !tbaa !46
  %38 = getelementptr inbounds nuw i8, ptr %20, i64 112
  %39 = getelementptr inbounds nuw i8, ptr %20, i64 136
  tail call void @llvm.memset.p0.i64(ptr noundef nonnull align 8 dereferenceable(20) %38, i8 0, i64 20, i1 false)
  tail call void @llvm.memset.p0.i64(ptr noundef nonnull align 8 dereferenceable(16) %39, i8 0, i64 16, i1 false)
  tail call void @PyObject_GC_Track(ptr noundef nonnull %20) #13
  br label %Py_XDECREF.exit

Py_XDECREF.exit:                                  ; preds = %12, %4, %27, %24, %22, %28, %.split
  %.0 = phi ptr [ %20, %28 ], [ null, %.split ], [ null, %22 ], [ null, %24 ], [ null, %27 ], [ null, %4 ], [ null, %12 ]
  ret ptr %.0
}